Certificate:
    Data:
        Version: 3 (0x2)
        Serial Number: 12661879955169098594 (0xafb808bbd47e3b62)
    Signature Algorithm: sha1WithRSAEncryption
        Issuer: C=NL, ST=NH, O=NLNOG RING, CN=AMP CA
        Validity
            Not Before: Jun 21 13:20:13 2012 GMT
            Not After : Jun 21 13:20:13 2015 GMT
        Subject: C=NL, ST=NH, O=NLNOG RING, CN=AMP CA
        Subject Public Key Info:
            Public Key Algorithm: rsaEncryption
                Public-Key: (1024 bit)
                Modulus:
                    00:b0:0e:76:43:0e:cb:68:97:23:89:33:33:3f:b5:
                    1b:c0:73:fe:6d:d1:8a:a5:d3:a9:14:5a:b0:fd:f5:
                    4a:ba:b8:b3:9d:74:4b:b3:b8:1c:2e:e5:21:3b:1e:
                    88:f5:da:ab:0d:f9:28:5e:4b:07:ec:b4:1a:0a:1b:
                    33:e4:f5:5b:41:75:f0:1d:df:8c:be:c4:01:24:72:
                    26:72:a8:21:b9:71:1e:09:f9:f4:16:d8:8c:35:d8:
                    be:3a:d2:b4:c3:5f:91:a4:29:94:eb:a5:fe:87:90:
                    be:04:9a:67:07:ba:cc:3e:f6:3f:ef:b0:01:34:91:
                    9f:22:53:f9:69:59:b3:d5:e3
                Exponent: 65537 (0x10001)
        X509v3 extensions:
            X509v3 Subject Key Identifier: 
                D6:B2:DB:F3:02:BC:B1:7F:8C:C0:11:7C:6A:B1:B3:61:8B:A6:DD:B8
            X509v3 Authority Key Identifier: 
                keyid:D6:B2:DB:F3:02:BC:B1:7F:8C:C0:11:7C:6A:B1:B3:61:8B:A6:DD:B8

            X509v3 Basic Constraints: 
                CA:TRUE
    Signature Algorithm: sha1WithRSAEncryption
         33:29:16:f2:74:f2:76:6e:26:99:cd:82:79:2e:e0:13:42:7b:
         7f:52:86:02:62:07:21:3e:ab:49:5e:f0:8d:83:4e:cf:84:ee:
         8d:a6:43:39:0f:f8:7f:a9:a3:40:86:7f:48:ad:39:b7:c6:3c:
         a3:d9:43:b0:bc:03:35:04:fc:67:1f:34:89:7f:e9:65:42:98:
         74:ab:9b:d5:2f:df:5e:7a:46:25:8a:7d:83:43:05:1c:fc:15:
         23:60:39:fb:46:3f:dd:df:6a:55:85:91:11:3b:db:e5:0b:52:
         84:83:52:8f:e8:88:d9:42:04:b0:5a:d6:ea:1e:6a:5f:d4:25:
         a7:76
-----BEGIN CERTIFICATE-----
MIICTjCCAbegAwIBAgIJAK+4CLvUfjtiMA0GCSqGSIb3DQEBBQUAMEAxCzAJBgNV
BAYTAk5MMQswCQYDVQQIDAJOSDETMBEGA1UECgwKTkxOT0cgUklORzEPMA0GA1UE
AwwGQU1QIENBMB4XDTEyMDYyMTEzMjAxM1oXDTE1MDYyMTEzMjAxM1owQDELMAkG
A1UEBhMCTkwxCzAJBgNVBAgMAk5IMRMwEQYDVQQKDApOTE5PRyBSSU5HMQ8wDQYD
VQQDDAZBTVAgQ0EwgZ8wDQYJKoZIhvcNAQEBBQADgY0AMIGJAoGBALAOdkMOy2iX
I4kzMz+1G8Bz/m3RiqXTqRRasP31Srq4s510S7O4HC7lITseiPXaqw35KF5LB+y0
GgobM+T1W0F18B3fjL7EASRyJnKoIblxHgn59BbYjDXYvjrStMNfkaQplOul/oeQ
vgSaZwe6zD72P++wATSRnyJT+WlZs9XjAgMBAAGjUDBOMB0GA1UdDgQWBBTWstvz
Aryxf4zAEXxqsbNhi6bduDAfBgNVHSMEGDAWgBTWstvzAryxf4zAEXxqsbNhi6bd
uDAMBgNVHRMEBTADAQH/MA0GCSqGSIb3DQEBBQUAA4GBADMpFvJ08nZuJpnNgnku
4BNCe39ShgJiByE+q0le8I2DTs+E7o2mQzkP+H+po0CGf0itObfGPKPZQ7C8AzUE
/GcfNIl/6WVCmHSrm9Uv3156RiWKfYNDBRz8FSNgOftGP93falWFkRE72+ULUoSD
Uo/oiNlCBLBa1uoeal/UJad2
-----END CERTIFICATE-----
