Certificate:
    Data:
        Version: 3 (0x2)
        Serial Number: 10214210091159064987 (0x8dc029f5f0bf119b)
    Signature Algorithm: sha1WithRSAEncryption
        Issuer: C=NL, ST=NH, O=AMP, OU=CA, CN=Job Snijders/emailAddress=job@atrato.com
        Validity
            Not Before: Jun 27 11:00:08 2013 GMT
            Not After : Jun 26 11:00:08 2016 GMT
        Subject: C=NL, ST=NH, O=AMP, OU=CA, CN=Job Snijders/emailAddress=job@atrato.com
        Subject Public Key Info:
            Public Key Algorithm: rsaEncryption
                Public-Key: (1024 bit)
                Modulus:
                    00:ae:7b:04:72:bd:2a:26:a4:d1:b7:fe:ae:3c:65:
                    da:1d:5f:ee:6a:14:90:38:f8:95:81:d7:8f:10:a0:
                    68:5f:4f:78:e4:68:5c:c9:6b:2e:c5:97:e1:06:5e:
                    e6:7d:97:91:8a:3d:a0:e6:d0:50:34:67:a9:95:50:
                    a3:fd:17:3a:aa:ca:0f:22:7d:3b:24:80:57:29:06:
                    f5:09:9c:ec:04:2d:76:63:e4:c2:23:d9:9e:c6:c8:
                    12:94:1e:9a:f0:d6:5a:e2:83:c9:3f:72:95:65:eb:
                    31:0f:21:c7:de:d6:df:0b:8a:ac:73:05:6c:75:15:
                    d4:44:dc:03:99:e0:f4:3f:81
                Exponent: 65537 (0x10001)
        X509v3 extensions:
            X509v3 Subject Key Identifier:
                84:EA:76:29:B8:8F:18:2E:2D:B8:23:9E:AF:51:21:4C:A3:F9:16:89
            X509v3 Authority Key Identifier:
                keyid:84:EA:76:29:B8:8F:18:2E:2D:B8:23:9E:AF:51:21:4C:A3:F9:16:89

            X509v3 Basic Constraints:
                CA:TRUE
    Signature Algorithm: sha1WithRSAEncryption
         11:06:00:1c:a3:3f:37:a2:71:94:cd:07:24:42:46:2e:77:69:
         93:f8:4b:d0:d1:5a:ef:f1:05:6b:49:1d:b1:9b:14:ef:e3:36:
         33:3f:ff:9c:2d:bb:98:27:4c:ca:d5:d6:72:94:ff:6b:9c:9d:
         d6:88:ba:23:44:fc:2d:e0:fe:49:30:4a:3d:59:61:31:19:87:
         71:74:35:c4:a8:1a:ef:35:4c:6a:71:3a:85:42:e6:89:2b:50:
         f9:f7:02:d5:9c:0f:85:1e:58:44:6f:ec:e8:29:cf:5a:25:bc:
         e0:45:a3:31:10:e8:ab:7a:94:8e:34:a5:20:d3:36:6e:ac:ba:
         b4:31
-----BEGIN CERTIFICATE-----
MIICpDCCAg2gAwIBAgIJAI3AKfXwvxGbMA0GCSqGSIb3DQEBBQUAMGsxCzAJBgNV
BAYTAk5MMQswCQYDVQQIDAJOSDEMMAoGA1UECgwDQU1QMQswCQYDVQQLDAJDQTEV
MBMGA1UEAwwMSm9iIFNuaWpkZXJzMR0wGwYJKoZIhvcNAQkBFg5qb2JAYXRyYXRv
LmNvbTAeFw0xMzA2MjcxMTAwMDhaFw0xNjA2MjYxMTAwMDhaMGsxCzAJBgNVBAYT
Ak5MMQswCQYDVQQIDAJOSDEMMAoGA1UECgwDQU1QMQswCQYDVQQLDAJDQTEVMBMG
A1UEAwwMSm9iIFNuaWpkZXJzMR0wGwYJKoZIhvcNAQkBFg5qb2JAYXRyYXRvLmNv
bTCBnzANBgkqhkiG9w0BAQEFAAOBjQAwgYkCgYEArnsEcr0qJqTRt/6uPGXaHV/u
ahSQOPiVgdePEKBoX0945GhcyWsuxZfhBl7mfZeRij2g5tBQNGeplVCj/Rc6qsoP
In07JIBXKQb1CZzsBC12Y+TCI9mexsgSlB6a8NZa4oPJP3KVZesxDyHH3tbfC4qs
cwVsdRXURNwDmeD0P4ECAwEAAaNQME4wHQYDVR0OBBYEFITqdim4jxguLbgjnq9R
IUyj+RaJMB8GA1UdIwQYMBaAFITqdim4jxguLbgjnq9RIUyj+RaJMAwGA1UdEwQF
MAMBAf8wDQYJKoZIhvcNAQEFBQADgYEAEQYAHKM/N6JxlM0HJEJGLndpk/hL0NFa
7/EFa0kdsZsU7+M2Mz//nC27mCdMytXWcpT/a5yd1oi6I0T8LeD+STBKPVlhMRmH
cXQ1xKga7zVManE6hULmiStQ+fcC1ZwPhR5YRG/s6CnPWiW84EWjMRDoq3qUjjSl
INM2bqy6tDE=
-----END CERTIFICATE-----
