Certificate:
    Data:
        Version: 3 (0x2)
        Serial Number: 10214210091159064988 (0x8dc029f5f0bf119c)
    Signature Algorithm: sha1WithRSAEncryption
        Issuer: C=NL, ST=NH, O=AMP, OU=CA, CN=Job Snijders/emailAddress=job@atrato.com
        Validity
            Not Before: Jun 27 11:01:12 2013 GMT
            Not After : Jun 27 11:01:12 2014 GMT
        Subject: C=NL, ST=NH, O=AMP, OU=client, CN=client/emailAddress=job@atrato.com
        Subject Public Key Info:
            Public Key Algorithm: rsaEncryption
                Public-Key: (2048 bit)
                Modulus:
                    00:d1:02:1a:25:ac:97:f1:f0:c1:a7:c4:62:1f:8d:
                    de:0e:fe:6a:44:0c:7d:e9:1e:3a:6b:61:40:17:5d:
                    a2:26:01:8b:60:e3:71:58:11:19:5a:7b:cc:ca:0a:
                    ba:83:37:e3:8f:7b:a0:ec:88:82:1a:13:06:26:b3:
                    5a:ce:c6:1f:23:40:57:62:6b:0b:0d:a4:42:38:82:
                    69:db:83:95:c4:1d:ea:3b:38:c4:f5:95:23:14:7f:
                    03:f7:ab:60:58:cd:4f:7e:b7:2b:ce:52:72:c1:a2:
                    3c:81:53:26:0b:b4:d0:63:a2:96:8b:07:05:ae:4d:
                    90:9b:1d:a3:3f:6a:5d:ce:74:ee:51:af:ff:7b:61:
                    65:92:e8:0a:fe:81:30:57:6e:6f:7f:02:8d:49:c1:
                    11:c6:50:f4:a1:bd:23:37:8c:d1:83:e6:fb:d1:6b:
                    f9:c9:c4:6d:99:eb:a5:ae:c0:f6:1d:ad:a5:63:8c:
                    c8:4a:f3:a2:02:03:7a:fa:37:f0:22:16:0a:0c:ec:
                    79:1b:b2:8c:ab:98:40:75:87:37:cc:46:b9:31:25:
                    e0:0d:a2:5e:e2:5e:c9:ad:1c:77:20:b3:7f:83:83:
                    2e:ca:92:94:c7:5b:96:c1:67:dd:70:6b:b9:c9:f1:
                    4f:1b:84:97:c9:cd:8c:42:eb:27:9b:e3:2b:19:65:
                    29:27
                Exponent: 65537 (0x10001)
        X509v3 extensions:
            X509v3 Basic Constraints:
                CA:FALSE
            Netscape Comment:
                OpenSSL Generated Certificate
            X509v3 Subject Key Identifier:
                B8:22:6A:4C:89:38:07:CF:45:0F:9F:DB:62:04:AF:A7:9F:91:A2:0E
            X509v3 Authority Key Identifier:
                keyid:84:EA:76:29:B8:8F:18:2E:2D:B8:23:9E:AF:51:21:4C:A3:F9:16:89

    Signature Algorithm: sha1WithRSAEncryption
         5d:5a:d6:de:25:3c:92:b7:2d:e0:55:04:c3:b1:52:80:32:ed:
         fd:16:cd:e4:24:62:e3:10:c6:f7:9b:39:32:68:3f:c0:12:40:
         f9:80:19:03:36:f7:e4:0a:ba:0c:eb:c6:11:20:0c:53:7f:cf:
         47:ec:6e:e5:23:a0:a1:ea:2d:3d:dd:e3:75:30:91:aa:0d:0c:
         c4:28:b2:fc:18:e7:90:11:48:96:ad:b9:62:0f:0f:ac:1f:a1:
         95:37:6d:0e:6e:e5:83:f2:af:0e:c4:d5:3e:71:9d:ce:b1:69:
         00:23:a0:45:5f:63:9c:c9:f7:80:a3:76:46:9c:93:d3:af:24:
         33:bb
-----BEGIN CERTIFICATE-----
MIIDUTCCArqgAwIBAgIJAI3AKfXwvxGcMA0GCSqGSIb3DQEBBQUAMGsxCzAJBgNV
BAYTAk5MMQswCQYDVQQIDAJOSDEMMAoGA1UECgwDQU1QMQswCQYDVQQLDAJDQTEV
MBMGA1UEAwwMSm9iIFNuaWpkZXJzMR0wGwYJKoZIhvcNAQkBFg5qb2JAYXRyYXRv
LmNvbTAeFw0xMzA2MjcxMTAxMTJaFw0xNDA2MjcxMTAxMTJaMGkxCzAJBgNVBAYT
Ak5MMQswCQYDVQQIDAJOSDEMMAoGA1UECgwDQU1QMQ8wDQYDVQQLDAZjbGllbnQx
DzANBgNVBAMMBmNsaWVudDEdMBsGCSqGSIb3DQEJARYOam9iQGF0cmF0by5jb20w
ggEiMA0GCSqGSIb3DQEBAQUAA4IBDwAwggEKAoIBAQDRAholrJfx8MGnxGIfjd4O
/mpEDH3pHjprYUAXXaImAYtg43FYERlae8zKCrqDN+OPe6DsiIIaEwYms1rOxh8j
QFdiawsNpEI4gmnbg5XEHeo7OMT1lSMUfwP3q2BYzU9+tyvOUnLBojyBUyYLtNBj
opaLBwWuTZCbHaM/al3OdO5Rr/97YWWS6Ar+gTBXbm9/Ao1JwRHGUPShvSM3jNGD
5vvRa/nJxG2Z66WuwPYdraVjjMhK86ICA3r6N/AiFgoM7HkbsoyrmEB1hzfMRrkx
JeANol7iXsmtHHcgs3+Dgy7KkpTHW5bBZ91wa7nJ8U8bhJfJzYxC6yeb4ysZZSkn
AgMBAAGjezB5MAkGA1UdEwQCMAAwLAYJYIZIAYb4QgENBB8WHU9wZW5TU0wgR2Vu
ZXJhdGVkIENlcnRpZmljYXRlMB0GA1UdDgQWBBS4ImpMiTgHz0UPn9tiBK+nn5Gi
DjAfBgNVHSMEGDAWgBSE6nYpuI8YLi24I56vUSFMo/kWiTANBgkqhkiG9w0BAQUF
AAOBgQBdWtbeJTySty3gVQTDsVKAMu39Fs3kJGLjEMb3mzkyaD/AEkD5gBkDNvfk
CroM68YRIAxTf89H7G7lI6Ch6i093eN1MJGqDQzEKLL8GOeQEUiWrbliDw+sH6GV
N20ObuWD8q8OxNU+cZ3OsWkAI6BFX2OcyfeAo3ZGnJPTryQzuw==
-----END CERTIFICATE-----
