Certificate:
    Data:
        Version: 3 (0x2)
        Serial Number: 12661879955169098595 (0xafb808bbd47e3b63)
    Signature Algorithm: sha1WithRSAEncryption
        Issuer: C=NL, ST=NH, O=NLNOG RING, CN=AMP CA
        Validity
            Not Before: Jun 21 13:21:00 2012 GMT
            Not After : Jun 21 13:21:00 2013 GMT
        Subject: C=NL, ST=NH, O=NLNOG RING, OU=client, CN=client
        Subject Public Key Info:
            Public Key Algorithm: rsaEncryption
                Public-Key: (2048 bit)
                Modulus:
                    00:b1:4d:ed:70:80:66:53:bf:7b:36:1a:cb:40:23:
                    f8:d2:0c:6b:1c:45:74:9f:c4:21:73:fa:e4:d1:76:
                    96:62:44:6e:8e:c6:03:94:91:51:e6:ab:e3:74:73:
                    04:db:91:1a:a3:cf:96:de:6f:eb:91:d4:6c:66:f6:
                    3c:01:0a:c0:e3:1c:b3:73:e5:82:d3:dc:1c:09:0d:
                    28:13:26:11:25:7b:02:f7:d5:88:cf:17:f4:27:3c:
                    49:65:93:37:6a:83:0e:a3:1b:82:93:f9:3e:6a:23:
                    cc:90:0e:88:af:ba:7d:08:92:78:0c:c7:46:c3:e6:
                    a8:ad:08:87:ed:35:bb:bc:52:77:7a:26:e4:51:22:
                    8d:f3:bc:97:b8:a7:8b:50:61:5e:8d:d7:08:cf:83:
                    11:96:b6:23:17:1d:97:42:bf:3e:13:35:49:62:c3:
                    1e:d4:83:9d:02:f6:ec:c2:15:63:58:5c:66:bc:a8:
                    54:9a:d7:27:51:d6:68:81:42:28:a7:e8:84:a8:a2:
                    d3:70:7a:1d:d8:5f:26:65:ff:57:13:b7:08:79:20:
                    15:ea:8c:c1:03:f4:50:89:c0:6b:2d:86:62:a0:6d:
                    79:eb:d8:12:f9:05:10:5e:3a:1d:a1:b9:b0:c6:8e:
                    8f:ac:8b:8e:6f:2e:b5:73:7a:86:15:b8:f3:ac:31:
                    fd:69
                Exponent: 65537 (0x10001)
        X509v3 extensions:
            X509v3 Basic Constraints: 
                CA:FALSE
            Netscape Comment: 
                OpenSSL Generated Certificate
            X509v3 Subject Key Identifier: 
                00:54:6D:EF:1C:15:B0:09:9F:CE:2A:08:F0:22:4C:B1:0A:4E:F9:20
            X509v3 Authority Key Identifier: 
                keyid:D6:B2:DB:F3:02:BC:B1:7F:8C:C0:11:7C:6A:B1:B3:61:8B:A6:DD:B8

    Signature Algorithm: sha1WithRSAEncryption
         79:92:b1:a0:53:c3:15:94:ab:11:57:96:a5:e2:32:00:c6:21:
         0e:b1:3b:20:a6:0e:58:94:e3:6f:c2:18:e6:d9:a9:bd:7a:7b:
         3e:ec:b0:82:5d:73:ce:fd:ca:f4:87:f0:37:df:62:8d:74:b0:
         f3:fc:6d:1a:d2:4d:eb:ef:bb:4d:e3:3e:7e:f6:54:ea:32:b5:
         c5:3c:d0:05:d3:ab:f4:94:5a:fb:95:f4:70:22:cf:d2:e5:f3:
         04:25:25:66:87:f4:46:db:21:e0:c0:21:39:05:76:c3:d5:c6:
         68:95:66:68:e5:5c:8d:1a:f9:dd:b2:0c:9d:d9:97:e4:50:d4:
         8c:7e
-----BEGIN CERTIFICATE-----
MIIDDjCCAnegAwIBAgIJAK+4CLvUfjtjMA0GCSqGSIb3DQEBBQUAMEAxCzAJBgNV
BAYTAk5MMQswCQYDVQQIDAJOSDETMBEGA1UECgwKTkxOT0cgUklORzEPMA0GA1UE
AwwGQU1QIENBMB4XDTEyMDYyMTEzMjEwMFoXDTEzMDYyMTEzMjEwMFowUTELMAkG
A1UEBhMCTkwxCzAJBgNVBAgMAk5IMRMwEQYDVQQKDApOTE5PRyBSSU5HMQ8wDQYD
VQQLDAZjbGllbnQxDzANBgNVBAMMBmNsaWVudDCCASIwDQYJKoZIhvcNAQEBBQAD
ggEPADCCAQoCggEBALFN7XCAZlO/ezYay0Aj+NIMaxxFdJ/EIXP65NF2lmJEbo7G
A5SRUear43RzBNuRGqPPlt5v65HUbGb2PAEKwOMcs3PlgtPcHAkNKBMmESV7AvfV
iM8X9Cc8SWWTN2qDDqMbgpP5PmojzJAOiK+6fQiSeAzHRsPmqK0Ih+01u7xSd3om
5FEijfO8l7ini1BhXo3XCM+DEZa2Ixcdl0K/PhM1SWLDHtSDnQL27MIVY1hcZryo
VJrXJ1HWaIFCKKfohKii03B6HdhfJmX/VxO3CHkgFeqMwQP0UInAay2GYqBteevY
EvkFEF46HaG5sMaOj6yLjm8utXN6hhW486wx/WkCAwEAAaN7MHkwCQYDVR0TBAIw
ADAsBglghkgBhvhCAQ0EHxYdT3BlblNTTCBHZW5lcmF0ZWQgQ2VydGlmaWNhdGUw
HQYDVR0OBBYEFABUbe8cFbAJn84qCPAiTLEKTvkgMB8GA1UdIwQYMBaAFNay2/MC
vLF/jMARfGqxs2GLpt24MA0GCSqGSIb3DQEBBQUAA4GBAHmSsaBTwxWUqxFXlqXi
MgDGIQ6xOyCmDliU42/CGObZqb16ez7ssIJdc879yvSH8DffYo10sPP8bRrSTevv
u03jPn72VOoytcU80AXTq/SUWvuV9HAiz9Ll8wQlJWaH9EbbIeDAITkFdsPVxmiV
ZmjlXI0a+d2yDJ3Zl+RQ1Ix+
-----END CERTIFICATE-----
